(lp1
(lp2
F-979.7099
aF-15.2916
aa(lp3
F-934.2347
aF-922.0641
aa(lp4
F-932.2511
aF146.4061
aa(lp5
F-876.0714
aF223.5927
aa(lp6
F-871.2271
aF-589.238
aa(lp7
F-870.734
aF-679.5815
aa(lp8
F-810.7914
aF-4.3089
aa(lp9
F-749.695
aF666.8097
aa(lp10
F-737.1075
aF-513.0902
aa(lp11
F-699.5836
aF110.9852
aa(lp12
F-647.2696
aF454.7047
aa(lp13
F-613.2762
aF-408.2516
aa(lp14
F-597.8693
aF10.7245
aa(lp15
F-582.188
aF385.6977
aa(lp16
F-529.7111
aF-749.8735
aa(lp17
F-418.8852
aF-561.784
aa(lp18
F-410.4572
aF857.2125
aa(lp19
F-270.399
aF-263.0929
aa(lp20
F-259.7697
aF-553.6786
aa(lp21
F-243.2205
aF56.342
aa(lp22
F-228.7466
aF-837.6057
aa(lp23
F-205.1406
aF663.4773
aa(lp24
F-187.8447
aF-605.3148
aa(lp25
F-69.1641
aF-118.1
aa(lp26
F-28.0076
aF-379.4668
aa(lp27
F-25.0982
aF315.93
aa(lp28
F76.9296
aF6.0442
aa(lp29
F85.6799
aF654.6655
aa(lp30
F86.0161
aF-649.7815
aa(lp31
F92.3672
aF-762.1013
aa(lp32
F115.2029
aF-274.3557
aa(lp33
F171.8912
aF-606.5955
aa(lp34
F172.6021
aF516.1656
aa(lp35
F207.2209
aF755.3445
aa(lp36
F209.4798
aF-95.1938
aa(lp37
F237.0039
aF-713.1821
aa(lp38
F301.1247
aF-395.3537
aa(lp39
F340.6416
aF148.8773
aa(lp40
F367.7608
aF378.3454
aa(lp41
F416.0337
aF13.478
aa(lp42
F423.9676
aF988.5951
aa(lp43
F503.9089
aF-144.8169
aa(lp44
F606.2129
aF210.7197
aa(lp45
F688.0993
aF608.1282
aa(lp46
F691.3073
aF-674.5109
aa(lp47
F718.7385
aF947.7762
aa(lp48
F802.3706
aF384.2036
aa(lp49
F874.768
aF743.3398
aa(lp50
F956.5772
aF-891.7862
aa(lp51
F975.9421
aF809.1207
aa.(lp1
(lp2
F-979.7099
aF-15.2916
aa(lp3
F-934.2347
aF-922.0641
aa(lp4
F-932.2511
aF146.4061
aa(lp5
F-876.0714
aF223.5927
aa(lp6
F-871.2271
aF-589.238
aa(lp7
F-870.734
aF-679.5815
aa(lp8
F-810.7914
aF-4.3089
aa(lp9
F-749.695
aF666.8097
aa(lp10
F-737.1075
aF-513.0902
aa(lp11
F-699.5836
aF110.9852
aa(lp12
F-647.2696
aF454.7047
aa(lp13
F-613.2762
aF-408.2516
aa(lp14
F-597.8693
aF10.7245
aa(lp15
F-582.188
aF385.6977
aa(lp16
F-529.7111
aF-749.8735
aa(lp17
F-418.8852
aF-561.784
aa(lp18
F-410.4572
aF857.2125
aa(lp19
F-270.399
aF-263.0929
aa(lp20
F-259.7697
aF-553.6786
aa(lp21
F-243.2205
aF56.342
aa(lp22
F-228.7466
aF-837.6057
aa(lp23
F-205.1406
aF663.4773
aa(lp24
F-187.8447
aF-605.3148
aa(lp25
F-69.1641
aF-118.1
aa(lp26
F-28.0076
aF-379.4668
aa(lp27
F-25.0982
aF315.93
aa(lp28
F76.9296
aF6.0442
aa(lp29
F85.6799
aF654.6655
aa(lp30
F86.0161
aF-649.7815
aa(lp31
F92.3672
aF-762.1013
aa(lp32
F115.2029
aF-274.3557
aa(lp33
F171.8912
aF-606.5955
aa(lp34
F172.6021
aF516.1656
aa(lp35
F207.2209
aF755.3445
aa(lp36
F209.4798
aF-95.1938
aa(lp37
F237.0039
aF-713.1821
aa(lp38
F301.1247
aF-395.3537
aa(lp39
F340.6416
aF148.8773
aa(lp40
F367.7608
aF378.3454
aa(lp41
F416.0337
aF13.478
aa(lp42
F423.9676
aF988.5951
aa(lp43
F503.9089
aF-144.8169
aa(lp44
F606.2129
aF210.7197
aa(lp45
F688.0993
aF608.1282
aa(lp46
F691.3073
aF-674.5109
aa(lp47
F718.7385
aF947.7762
aa(lp48
F802.3706
aF384.2036
aa(lp49
F874.768
aF743.3398
aa(lp50
F956.5772
aF-891.7862
aa(lp51
F975.9421
aF809.1207
aa.